target datalayout = "e-m:e-p270:32:32-p271:32:32-p272:64:64-i64:64-i128:128-f80:128-n8:16:32:64-S128"
target triple = "x86_64-pc-linux-gnu"

%struct.pmix_list_t = type { %struct.pmix_object_t, %struct.pmix_list_item_t, i64 }
%struct.pmix_object_t = type { %union.pthread_mutex_t, ptr, i32, %struct.pmix_tma }
%union.pthread_mutex_t = type { %struct.__pthread_mutex_s }
%struct.__pthread_mutex_s = type { i32, i32, i32, i32, i32, i16, i16, %struct.__pthread_internal_list }
%struct.__pthread_internal_list = type { ptr, ptr }
%struct.pmix_tma = type { ptr, ptr, ptr, ptr, ptr, ptr, ptr, ptr }
%struct.pmix_list_item_t = type { %struct.pmix_object_t, ptr, ptr, i32 }
%struct.pmix_pnet_globals_t = type { %struct.pmix_list_t, %struct.pmix_list_t, %struct.pmix_list_t, i8 }
%struct.pmix_class_t = type { ptr, ptr, ptr, ptr, i32, i32, ptr, ptr, i64 }
%struct.pmix_pnet_base_active_module_t = type { %struct.pmix_list_item_t, i32, ptr, ptr }
%struct.pmix_pnet_module_t = type { ptr, ptr, ptr, ptr, ptr, ptr, ptr, ptr, ptr, ptr, ptr, ptr, ptr, ptr }
%struct.pmix_fabric_s = type { ptr, i64, ptr, i64, ptr }
%struct.pmix_pnet_fabric_t = type { %struct.pmix_list_item_t, ptr, i64, ptr, ptr }

@pmix_pnet_globals = external global %struct.pmix_pnet_globals_t, align 8
@pmix_pnet_fabric_t_class = external global %struct.pmix_class_t, align 8
@pmix_class_init_epoch = external global i32, align 4

; Function Attrs: inlinehint nounwind uwtable
define internal void @pmix_obj_run_constructors(ptr noundef %0) #3 {
  %2 = alloca ptr, align 8
  %3 = alloca ptr, align 8
  store ptr %0, ptr %2, align 8, !tbaa !80
  call void @llvm.lifetime.start.p0(i64 8, ptr %3) #11
  %4 = load ptr, ptr %2, align 8, !tbaa !80
  %5 = getelementptr inbounds nuw %struct.pmix_object_t, ptr %4, i32 0, i32 1
  %6 = load ptr, ptr %5, align 8, !tbaa !83
  %7 = getelementptr inbounds nuw %struct.pmix_class_t, ptr %6, i32 0, i32 6
  %8 = load ptr, ptr %7, align 8, !tbaa !148
  store ptr %8, ptr %3, align 8, !tbaa !27
  br label %9

9:                                                ; preds = %13, %1
  %10 = load ptr, ptr %3, align 8, !tbaa !27
  %11 = load ptr, ptr %10, align 8, !tbaa !27
  %12 = icmp ne ptr null, %11
  br i1 %12, label %13, label %19

13:                                               ; preds = %9
  %14 = load ptr, ptr %3, align 8, !tbaa !27
  %15 = load ptr, ptr %14, align 8, !tbaa !27
  %16 = load ptr, ptr %2, align 8, !tbaa !80
  call void %15(ptr noundef %16)
  %17 = load ptr, ptr %3, align 8, !tbaa !27
  %18 = getelementptr inbounds nuw ptr, ptr %17, i32 1
  store ptr %18, ptr %3, align 8, !tbaa !27
  br label %9, !llvm.loop !149

19:                                               ; preds = %9
  call void @llvm.lifetime.end.p0(i64 8, ptr %3) #11
  ret void
}

; Function Attrs: inlinehint nounwind uwtable
define internal ptr @pmix_tma_malloc(ptr noundef %0, i64 noundef %1) #3 {
  %3 = alloca ptr, align 8
  %4 = alloca ptr, align 8
  %5 = alloca i64, align 8
  store ptr %0, ptr %4, align 8, !tbaa !76
  store i64 %1, ptr %5, align 8, !tbaa !10
  %6 = load ptr, ptr %4, align 8, !tbaa !76
  %7 = icmp ne ptr null, %6
  br i1 %7, label %8, label %15

8:                                                ; preds = %2
  %9 = load ptr, ptr %4, align 8, !tbaa !76
  %10 = getelementptr inbounds nuw %struct.pmix_tma, ptr %9, i32 0, i32 0
  %11 = load ptr, ptr %10, align 8, !tbaa !147
  %12 = load ptr, ptr %4, align 8, !tbaa !76
  %13 = load i64, ptr %5, align 8, !tbaa !10
  %14 = call ptr %11(ptr noundef %12, i64 noundef %13)
  store ptr %14, ptr %3, align 8
  br label %18

15:                                               ; preds = %2
  %16 = load i64, ptr %5, align 8, !tbaa !10
  %17 = call noalias ptr @malloc(i64 noundef %16) #15
  store ptr %17, ptr %3, align 8
  br label %18

18:                                               ; preds = %15, %8
  %19 = load ptr, ptr %3, align 8
  ret ptr %19
}

; Function Attrs: inlinehint nounwind uwtable
define internal void @_pmix_list_append(ptr noundef %0, ptr noundef %1) #3 {
  %3 = alloca ptr, align 8
  %4 = alloca ptr, align 8
  %5 = alloca ptr, align 8
  store ptr %0, ptr %3, align 8, !tbaa !12
  store ptr %1, ptr %4, align 8, !tbaa !93
  call void @llvm.lifetime.start.p0(i64 8, ptr %5) #11
  %6 = load ptr, ptr %3, align 8, !tbaa !12
  %7 = getelementptr inbounds nuw %struct.pmix_list_t, ptr %6, i32 0, i32 1
  store ptr %7, ptr %5, align 8, !tbaa !93
  %8 = load ptr, ptr %5, align 8, !tbaa !93
  %9 = getelementptr inbounds nuw %struct.pmix_list_item_t, ptr %8, i32 0, i32 2
  %10 = load ptr, ptr %9, align 8, !tbaa !94
  %11 = load ptr, ptr %4, align 8, !tbaa !93
  %12 = getelementptr inbounds nuw %struct.pmix_list_item_t, ptr %11, i32 0, i32 2
  store ptr %10, ptr %12, align 8, !tbaa !94
  %13 = load ptr, ptr %4, align 8, !tbaa !93
  %14 = load ptr, ptr %5, align 8, !tbaa !93
  %15 = getelementptr inbounds nuw %struct.pmix_list_item_t, ptr %14, i32 0, i32 2
  %16 = load ptr, ptr %15, align 8, !tbaa !94
  %17 = getelementptr inbounds nuw %struct.pmix_list_item_t, ptr %16, i32 0, i32 1
  store volatile ptr %13, ptr %17, align 8, !tbaa !50
  %18 = load ptr, ptr %5, align 8, !tbaa !93
  %19 = load ptr, ptr %4, align 8, !tbaa !93
  %20 = getelementptr inbounds nuw %struct.pmix_list_item_t, ptr %19, i32 0, i32 1
  store ptr %18, ptr %20, align 8, !tbaa !50
  %21 = load ptr, ptr %4, align 8, !tbaa !93
  %22 = load ptr, ptr %5, align 8, !tbaa !93
  %23 = getelementptr inbounds nuw %struct.pmix_list_item_t, ptr %22, i32 0, i32 2
  store ptr %21, ptr %23, align 8, !tbaa !94
  %24 = load ptr, ptr %3, align 8, !tbaa !12
  %25 = getelementptr inbounds nuw %struct.pmix_list_t, ptr %24, i32 0, i32 2
  %26 = load volatile i64, ptr %25, align 8, !tbaa !74
  %27 = add i64 %26, 1
  store volatile i64 %27, ptr %25, align 8, !tbaa !74
  call void @llvm.lifetime.end.p0(i64 8, ptr %5) #11
  ret void
}

; Function Attrs: inlinehint nounwind uwtable
define internal ptr @pmix_obj_new_tma(ptr noundef %0, ptr noundef %1) #3 {
  %3 = alloca ptr, align 8
  %4 = alloca ptr, align 8
  %5 = alloca ptr, align 8
  store ptr %0, ptr %3, align 8, !tbaa !75
  store ptr %1, ptr %4, align 8, !tbaa !76
  call void @llvm.lifetime.start.p0(i64 8, ptr %5) #11
  %6 = load ptr, ptr %4, align 8, !tbaa !76
  %7 = load ptr, ptr %3, align 8, !tbaa !75
  %8 = getelementptr inbounds nuw %struct.pmix_class_t, ptr %7, i32 0, i32 8
  %9 = load i64, ptr %8, align 8, !tbaa !78
  %10 = call ptr @pmix_tma_malloc(ptr noundef %6, i64 noundef %9)
  store ptr %10, ptr %5, align 8, !tbaa !80
  %11 = load i32, ptr @pmix_class_init_epoch, align 4, !tbaa !72
  %12 = load ptr, ptr %3, align 8, !tbaa !75
  %13 = getelementptr inbounds nuw %struct.pmix_class_t, ptr %12, i32 0, i32 4
  %14 = load i32, ptr %13, align 8, !tbaa !82
  %15 = icmp ne i32 %11, %14
  br i1 %15, label %16, label %18

16:                                               ; preds = %2
  %17 = load ptr, ptr %3, align 8, !tbaa !75
  call void @pmix_class_initialize(ptr noundef %17)
  br label %18

18:                                               ; preds = %16, %2
  %19 = load ptr, ptr %5, align 8, !tbaa !80
  %20 = icmp ne ptr null, %19
  br i1 %20, label %21, label %60

21:                                               ; preds = %18
  %22 = load ptr, ptr %5, align 8, !tbaa !80
  %23 = getelementptr inbounds nuw %struct.pmix_object_t, ptr %22, i32 0, i32 0
  %24 = call i32 @pthread_mutex_init(ptr noundef %23, ptr noundef null) #11
  %25 = load ptr, ptr %3, align 8, !tbaa !75
  %26 = load ptr, ptr %5, align 8, !tbaa !80
  %27 = getelementptr inbounds nuw %struct.pmix_object_t, ptr %26, i32 0, i32 1
  store ptr %25, ptr %27, align 8, !tbaa !83
  %28 = load ptr, ptr %5, align 8, !tbaa !80
  %29 = getelementptr inbounds nuw %struct.pmix_object_t, ptr %28, i32 0, i32 2
  store i32 1, ptr %29, align 8, !tbaa !84
  %30 = load ptr, ptr %4, align 8, !tbaa !76
  %31 = icmp eq ptr null, %30
  br i1 %31, label %32, label %54

32:                                               ; preds = %21
  %33 = load ptr, ptr %5, align 8, !tbaa !80
  %34 = getelementptr inbounds nuw %struct.pmix_object_t, ptr %33, i32 0, i32 3
  %35 = getelementptr inbounds nuw %struct.pmix_tma, ptr %34, i32 0, i32 0
  store ptr null, ptr %35, align 8, !tbaa !85
  %36 = load ptr, ptr %5, align 8, !tbaa !80
  %37 = getelementptr inbounds nuw %struct.pmix_object_t, ptr %36, i32 0, i32 3
  %38 = getelementptr inbounds nuw %struct.pmix_tma, ptr %37, i32 0, i32 1
  store ptr null, ptr %38, align 8, !tbaa !86
  %39 = load ptr, ptr %5, align 8, !tbaa !80
  %40 = getelementptr inbounds nuw %struct.pmix_object_t, ptr %39, i32 0, i32 3
  %41 = getelementptr inbounds nuw %struct.pmix_tma, ptr %40, i32 0, i32 2
  store ptr null, ptr %41, align 8, !tbaa !87
  %42 = load ptr, ptr %5, align 8, !tbaa !80
  %43 = getelementptr inbounds nuw %struct.pmix_object_t, ptr %42, i32 0, i32 3
  %44 = getelementptr inbounds nuw %struct.pmix_tma, ptr %43, i32 0, i32 3
  store ptr null, ptr %44, align 8, !tbaa !88
  %45 = load ptr, ptr %5, align 8, !tbaa !80
  %46 = getelementptr inbounds nuw %struct.pmix_object_t, ptr %45, i32 0, i32 3
  %47 = getelementptr inbounds nuw %struct.pmix_tma, ptr %46, i32 0, i32 5
  store ptr null, ptr %47, align 8, !tbaa !89
  %48 = load ptr, ptr %5, align 8, !tbaa !80
  %49 = getelementptr inbounds nuw %struct.pmix_object_t, ptr %48, i32 0, i32 3
  %50 = getelementptr inbounds nuw %struct.pmix_tma, ptr %49, i32 0, i32 6
  store ptr null, ptr %50, align 8, !tbaa !90
  %51 = load ptr, ptr %5, align 8, !tbaa !80
  %52 = getelementptr inbounds nuw %struct.pmix_object_t, ptr %51, i32 0, i32 3
  %53 = getelementptr inbounds nuw %struct.pmix_tma, ptr %52, i32 0, i32 7
  store ptr null, ptr %53, align 8, !tbaa !91
  br label %58

54:                                               ; preds = %21
  %55 = load ptr, ptr %5, align 8, !tbaa !80
  %56 = getelementptr inbounds nuw %struct.pmix_object_t, ptr %55, i32 0, i32 3
  %57 = load ptr, ptr %4, align 8, !tbaa !76
  call void @llvm.memcpy.p0.p0.i64(ptr align 8 %56, ptr align 8 %57, i64 64, i1 false), !tbaa.struct !92
  br label %58

58:                                               ; preds = %54, %32
  %59 = load ptr, ptr %5, align 8, !tbaa !80
  call void @pmix_obj_run_constructors(ptr noundef %59)
  br label %60

60:                                               ; preds = %58, %18
  %61 = load ptr, ptr %5, align 8, !tbaa !80
  call void @llvm.lifetime.end.p0(i64 8, ptr %5) #11
  ret ptr %61
}

; Function Attrs: inlinehint nounwind uwtable
define internal i64 @pmix_list_get_size(ptr noundef %0) #3 {
  %2 = alloca ptr, align 8
  store ptr %0, ptr %2, align 8, !tbaa !12
  %3 = load ptr, ptr %2, align 8, !tbaa !12
  %4 = getelementptr inbounds nuw %struct.pmix_list_t, ptr %3, i32 0, i32 2
  %5 = load volatile i64, ptr %4, align 8, !tbaa !74
  ret i64 %5
}

; Function Attrs: nounwind uwtable
define i32 @pmix_pnet_base_register_fabric(ptr noundef %0, ptr noundef %1, i64 noundef %2, ptr noundef %3, ptr noundef %4) #0 {
  %6 = alloca i32, align 4
  %7 = alloca ptr, align 8
  %8 = alloca ptr, align 8
  %9 = alloca i64, align 8
  %10 = alloca ptr, align 8
  %11 = alloca ptr, align 8
  %12 = alloca ptr, align 8
  %13 = alloca i32, align 4
  %14 = alloca ptr, align 8
  %15 = alloca i32, align 4
  store ptr %0, ptr %7, align 8, !tbaa !128
  store ptr %1, ptr %8, align 8, !tbaa !8
  store i64 %2, ptr %9, align 8, !tbaa !10
  store ptr %3, ptr %10, align 8, !tbaa !27
  store ptr %4, ptr %11, align 8, !tbaa !27
  call void @llvm.lifetime.start.p0(i64 8, ptr %12) #11
  call void @llvm.lifetime.start.p0(i64 4, ptr %13) #11
  call void @llvm.lifetime.start.p0(i64 8, ptr %14) #11
  %16 = load ptr, ptr %7, align 8, !tbaa !128
  %17 = getelementptr inbounds nuw %struct.pmix_fabric_s, ptr %16, i32 0, i32 2
  store ptr null, ptr %17, align 8, !tbaa !130
  %18 = load ptr, ptr %7, align 8, !tbaa !128
  %19 = getelementptr inbounds nuw %struct.pmix_fabric_s, ptr %18, i32 0, i32 3
  store i64 0, ptr %19, align 8, !tbaa !132
  %20 = load ptr, ptr %7, align 8, !tbaa !128
  %21 = getelementptr inbounds nuw %struct.pmix_fabric_s, ptr %20, i32 0, i32 4
  store ptr null, ptr %21, align 8, !tbaa !133
  %22 = call i64 @pmix_list_get_size(ptr noundef @pmix_pnet_globals)
  %23 = icmp eq i64 0, %22
  br i1 %23, label %24, label %25

24:                                               ; preds = %5
  store i32 -47, ptr %6, align 4
  store i32 1, ptr %15, align 4
  br label %91

25:                                               ; preds = %5
  %26 = load ptr, ptr getelementptr inbounds nuw (%struct.pmix_list_item_t, ptr getelementptr inbounds nuw (%struct.pmix_list_t, ptr @pmix_pnet_globals, i32 0, i32 1), i32 0, i32 1), align 8, !tbaa !63
  store ptr %26, ptr %12, align 8, !tbaa !65
  br label %27

27:                                               ; preds = %86, %25
  %28 = load ptr, ptr %12, align 8, !tbaa !65
  %29 = icmp ne ptr %28, getelementptr inbounds nuw (%struct.pmix_list_t, ptr @pmix_pnet_globals, i32 0, i32 1)
  br i1 %29, label %30, label %90

30:                                               ; preds = %27
  %31 = load ptr, ptr %12, align 8, !tbaa !65
  %32 = getelementptr inbounds nuw %struct.pmix_pnet_base_active_module_t, ptr %31, i32 0, i32 2
  %33 = load ptr, ptr %32, align 8, !tbaa !67
  %34 = getelementptr inbounds nuw %struct.pmix_pnet_module_t, ptr %33, i32 0, i32 11
  %35 = load ptr, ptr %34, align 8, !tbaa !134
  %36 = icmp ne ptr null, %35
  br i1 %36, label %37, label %85

37:                                               ; preds = %30
  %38 = load ptr, ptr %12, align 8, !tbaa !65
  %39 = getelementptr inbounds nuw %struct.pmix_pnet_base_active_module_t, ptr %38, i32 0, i32 2
  %40 = load ptr, ptr %39, align 8, !tbaa !67
  %41 = getelementptr inbounds nuw %struct.pmix_pnet_module_t, ptr %40, i32 0, i32 11
  %42 = load ptr, ptr %41, align 8, !tbaa !134
  %43 = load ptr, ptr %7, align 8, !tbaa !128
  %44 = load ptr, ptr %8, align 8, !tbaa !8
  %45 = load i64, ptr %9, align 8, !tbaa !10
  %46 = load ptr, ptr %10, align 8, !tbaa !27
  %47 = load ptr, ptr %11, align 8, !tbaa !27
  %48 = call i32 %42(ptr noundef %43, ptr noundef %44, i64 noundef %45, ptr noundef %46, ptr noundef %47)
  store i32 %48, ptr %13, align 4, !tbaa !72
  %49 = load i32, ptr %13, align 4, !tbaa !72
  %50 = icmp eq i32 -157, %49
  br i1 %50, label %51, label %78

51:                                               ; preds = %37
  %52 = call ptr @pmix_obj_new_tma(ptr noundef @pmix_pnet_fabric_t_class, ptr noundef null)
  store ptr %52, ptr %14, align 8, !tbaa !27
  %53 = load ptr, ptr %7, align 8, !tbaa !128
  %54 = getelementptr inbounds nuw %struct.pmix_fabric_s, ptr %53, i32 0, i32 1
  %55 = load i64, ptr %54, align 8, !tbaa !135
  %56 = load ptr, ptr %14, align 8, !tbaa !27
  %57 = getelementptr inbounds nuw %struct.pmix_pnet_fabric_t, ptr %56, i32 0, i32 2
  store i64 %55, ptr %57, align 8, !tbaa !136
  %58 = load ptr, ptr %7, align 8, !tbaa !128
  %59 = getelementptr inbounds nuw %struct.pmix_fabric_s, ptr %58, i32 0, i32 0
  %60 = load ptr, ptr %59, align 8, !tbaa !138
  %61 = icmp ne ptr null, %60
  br i1 %61, label %62, label %69

62:                                               ; preds = %51
  %63 = load ptr, ptr %7, align 8, !tbaa !128
  %64 = getelementptr inbounds nuw %struct.pmix_fabric_s, ptr %63, i32 0, i32 0
  %65 = load ptr, ptr %64, align 8, !tbaa !138
  %66 = call noalias ptr @strdup(ptr noundef %65) #11
  %67 = load ptr, ptr %14, align 8, !tbaa !27
  %68 = getelementptr inbounds nuw %struct.pmix_pnet_fabric_t, ptr %67, i32 0, i32 1
  store ptr %66, ptr %68, align 8, !tbaa !139
  br label %69

69:                                               ; preds = %62, %51
  %70 = load ptr, ptr %12, align 8, !tbaa !65
  %71 = getelementptr inbounds nuw %struct.pmix_pnet_base_active_module_t, ptr %70, i32 0, i32 2
  %72 = load ptr, ptr %71, align 8, !tbaa !67
  %73 = load ptr, ptr %14, align 8, !tbaa !27
  %74 = getelementptr inbounds nuw %struct.pmix_pnet_fabric_t, ptr %73, i32 0, i32 3
  store ptr %72, ptr %74, align 8, !tbaa !140
  %75 = load ptr, ptr %14, align 8, !tbaa !27
  %76 = getelementptr inbounds nuw %struct.pmix_pnet_fabric_t, ptr %75, i32 0, i32 0
  call void @_pmix_list_append(ptr noundef getelementptr inbounds nuw (%struct.pmix_pnet_globals_t, ptr @pmix_pnet_globals, i32 0, i32 1), ptr noundef %76)
  %77 = load i32, ptr %13, align 4, !tbaa !72
  store i32 %77, ptr %6, align 4
  store i32 1, ptr %15, align 4
  br label %91

78:                                               ; preds = %37
  %79 = load i32, ptr %13, align 4, !tbaa !72
  %80 = icmp ne i32 -1366, %79
  br i1 %80, label %81, label %83

81:                                               ; preds = %78
  %82 = load i32, ptr %13, align 4, !tbaa !72
  store i32 %82, ptr %6, align 4
  store i32 1, ptr %15, align 4
  br label %91

83:                                               ; preds = %78
  br label %84

84:                                               ; preds = %83
  br label %85

85:                                               ; preds = %84, %30
  br label %86

86:                                               ; preds = %85
  %87 = load ptr, ptr %12, align 8, !tbaa !65
  %88 = getelementptr inbounds nuw %struct.pmix_list_item_t, ptr %87, i32 0, i32 1
  %89 = load ptr, ptr %88, align 8, !tbaa !50
  store ptr %89, ptr %12, align 8, !tbaa !65
  br label %27, !llvm.loop !141

90:                                               ; preds = %27
  store i32 -46, ptr %6, align 4
  store i32 1, ptr %15, align 4
  br label %91

91:                                               ; preds = %90, %81, %69, %24
  call void @llvm.lifetime.end.p0(i64 8, ptr %14) #11
  call void @llvm.lifetime.end.p0(i64 4, ptr %13) #11
  call void @llvm.lifetime.end.p0(i64 8, ptr %12) #11
  %92 = load i32, ptr %6, align 4
  ret i32 %92
}