; Function Attrs: nounwind uwtable
define range(i32 -1365, -1366) i32 @pmix_pnet_base_register_fabric(ptr noundef initializes((16, 40)) %0, ptr noundef %1, i64 noundef %2, ptr noundef %3, ptr noundef %4) local_unnamed_addr #0 {
  %6 = getelementptr inbounds nuw i8, ptr %0, i64 16
  tail call void @llvm.memset.p0.i64(ptr noundef nonnull align 8 dereferenceable(24) %6, i8 0, i64 24, i1 false)
  %7 = load volatile i64, ptr getelementptr inbounds nuw (i8, ptr @pmix_pnet_globals, i64 264), align 8, !tbaa !21
  %8 = icmp eq i64 %7, 0
  br i1 %8, label %.loopexit, label %.preheader

.preheader:                                       ; preds = %5
  %.02431 = load ptr, ptr getelementptr inbounds nuw (i8, ptr @pmix_pnet_globals, i64 240), align 8, !tbaa !22
  %.not32 = icmp eq ptr %.02431, getelementptr inbounds nuw (i8, ptr @pmix_pnet_globals, i64 120)
  br i1 %.not32, label %.loopexit, label %.lr.ph

.lr.ph:                                           ; preds = %.preheader, %50
  %.02433 = phi ptr [ %.024, %50 ], [ %.02431, %.preheader ]
  %9 = getelementptr inbounds nuw i8, ptr %.02433, i64 152
  %10 = load ptr, ptr %9, align 8, !tbaa !66
  %11 = getelementptr inbounds nuw i8, ptr %10, i64 88
  %12 = load ptr, ptr %11, align 8, !tbaa !99
  %.not28 = icmp eq ptr %12, null
  br i1 %.not28, label %50, label %13

13:                                               ; preds = %.lr.ph
  %14 = tail call i32 %12(ptr noundef %0, ptr noundef %1, i64 noundef %2, ptr noundef %3, ptr noundef %4) #11
  switch i32 %14, label %.loopexit [
    i32 -157, label %15
    i32 -1366, label %50
  ]

15:                                               ; preds = %13
  %16 = getelementptr inbounds nuw i8, ptr %.02433, i64 152
  %17 = load i64, ptr getelementptr inbounds nuw (i8, ptr @pmix_pnet_fabric_t_class, i64 56), align 8, !tbaa !31
  %18 = tail call noalias noundef ptr @malloc(i64 noundef %17) #13
  %19 = load i32, ptr @pmix_class_init_epoch, align 4, !tbaa !33
  %20 = load i32, ptr getelementptr inbounds nuw (i8, ptr @pmix_pnet_fabric_t_class, i64 32), align 8, !tbaa !34
  %.not.i = icmp eq i32 %19, %20
  br i1 %.not.i, label %22, label %21

21:                                               ; preds = %15
  tail call void @pmix_class_initialize(ptr noundef nonnull @pmix_pnet_fabric_t_class) #11
  br label %22

22:                                               ; preds = %21, %15
  %.not22.i = icmp eq ptr %18, null
  br i1 %.not22.i, label %pmix_obj_new_tma.exit, label %23

23:                                               ; preds = %22
  %24 = tail call i32 @pthread_mutex_init(ptr noundef nonnull %18, ptr noundef null) #11
  %25 = getelementptr inbounds nuw i8, ptr %18, i64 40
  store ptr @pmix_pnet_fabric_t_class, ptr %25, align 8, !tbaa !35
  %26 = getelementptr inbounds nuw i8, ptr %18, i64 48
  store i32 1, ptr %26, align 8, !tbaa !36
  %27 = getelementptr inbounds nuw i8, ptr %18, i64 56
  %28 = getelementptr inbounds nuw i8, ptr %18, i64 96
  tail call void @llvm.memset.p0.i64(ptr noundef nonnull align 8 dereferenceable(32) %27, i8 0, i64 32, i1 false)
  tail call void @llvm.memset.p0.i64(ptr noundef nonnull align 8 dereferenceable(24) %28, i8 0, i64 24, i1 false)
  %29 = load ptr, ptr getelementptr inbounds nuw (i8, ptr @pmix_pnet_fabric_t_class, i64 40), align 8, !tbaa !37
  %30 = load ptr, ptr %29, align 8, !tbaa !38
  %.not6.i.i = icmp eq ptr %30, null
  br i1 %.not6.i.i, label %pmix_obj_new_tma.exit, label %.lr.ph.i.i

.lr.ph.i.i:                                       ; preds = %23, %.lr.ph.i.i
  %31 = phi ptr [ %33, %.lr.ph.i.i ], [ %30, %23 ]
  %.07.i.i = phi ptr [ %32, %.lr.ph.i.i ], [ %29, %23 ]
  tail call void %31(ptr noundef nonnull %18) #11
  %32 = getelementptr inbounds nuw i8, ptr %.07.i.i, i64 8
  %33 = load ptr, ptr %32, align 8, !tbaa !38
  %.not.i.i = icmp eq ptr %33, null
  br i1 %.not.i.i, label %pmix_obj_new_tma.exit, label %.lr.ph.i.i, !llvm.loop !39

pmix_obj_new_tma.exit:                            ; preds = %.lr.ph.i.i, %22, %23
  %34 = getelementptr inbounds nuw i8, ptr %0, i64 8
  %35 = load i64, ptr %34, align 8, !tbaa !100
  %36 = getelementptr inbounds nuw i8, ptr %18, i64 152
  store i64 %35, ptr %36, align 8, !tbaa !103
  %37 = load ptr, ptr %0, align 8, !tbaa !105
  %.not30 = icmp eq ptr %37, null
  br i1 %.not30, label %41, label %38

38:                                               ; preds = %pmix_obj_new_tma.exit
  %39 = tail call noalias ptr @strdup(ptr noundef nonnull %37) #11
  %40 = getelementptr inbounds nuw i8, ptr %18, i64 144
  store ptr %39, ptr %40, align 8, !tbaa !106
  br label %41

41:                                               ; preds = %38, %pmix_obj_new_tma.exit
  %42 = load ptr, ptr %16, align 8, !tbaa !66
  %43 = getelementptr inbounds nuw i8, ptr %18, i64 160
  store ptr %42, ptr %43, align 8, !tbaa !107
  %44 = load ptr, ptr getelementptr inbounds nuw (i8, ptr @pmix_pnet_globals, i64 520), align 8, !tbaa !40
  %45 = getelementptr inbounds nuw i8, ptr %18, i64 128
  store ptr %44, ptr %45, align 8, !tbaa !40
  %46 = getelementptr inbounds nuw i8, ptr %44, i64 120
  store volatile ptr %18, ptr %46, align 8, !tbaa !22
  %47 = getelementptr inbounds nuw i8, ptr %18, i64 120
  store ptr getelementptr inbounds nuw (i8, ptr @pmix_pnet_globals, i64 392), ptr %47, align 8, !tbaa !22
  store ptr %18, ptr getelementptr inbounds nuw (i8, ptr @pmix_pnet_globals, i64 520), align 8, !tbaa !40
  %48 = load volatile i64, ptr getelementptr inbounds nuw (i8, ptr @pmix_pnet_globals, i64 536), align 8, !tbaa !21
  %49 = add i64 %48, 1
  store volatile i64 %49, ptr getelementptr inbounds nuw (i8, ptr @pmix_pnet_globals, i64 536), align 8, !tbaa !21
  br label %.loopexit

50:                                               ; preds = %13, %.lr.ph
  %51 = getelementptr inbounds nuw i8, ptr %.02433, i64 120
  %.024 = load ptr, ptr %51, align 8, !tbaa !22
  %.not = icmp eq ptr %.024, getelementptr inbounds nuw (i8, ptr @pmix_pnet_globals, i64 120)
  br i1 %.not, label %.loopexit, label %.lr.ph, !llvm.loop !108

.loopexit:                                        ; preds = %13, %50, %.preheader, %5, %41
  %.0 = phi i32 [ -157, %41 ], [ -47, %5 ], [ -46, %.preheader ], [ %14, %13 ], [ -46, %50 ]
  ret i32 %.0
}